target datalayout = "e-m:e-p270:32:32-p271:32:32-p272:64:64-i64:64-i128:128-f80:128-n8:16:32:64-S128"
target triple = "x86_64-pc-linux-gnu"

%struct.Aig_Man_t_ = type { ptr, ptr, ptr, ptr, ptr, ptr, ptr, %struct.Aig_Obj_t_, i32, i32, i32, i32, i32, i32, [7 x i32], i32, ptr, i32, ptr, i32, ptr, i32, i32, i32, ptr, i32, i32, i32, i32, i32, ptr, ptr, i32, ptr, ptr, i32, ptr, ptr, i32, i32, i32, ptr, ptr, ptr, ptr, ptr, ptr, ptr, ptr, ptr, ptr, ptr, ptr, ptr, ptr, i32, ptr, ptr, ptr, ptr, i32, i64, i64, i64, ptr, ptr }
%struct.Aig_Obj_t_ = type { %union.anon, ptr, ptr, i64, i32, i32, %union.anon.0 }
%union.anon = type { ptr }
%union.anon.0 = type { ptr }

; Function Attrs: inlinehint nounwind uwtable
define internal i32 @Aig_IsComplement(ptr noundef %0) #3 {
  %2 = alloca ptr, align 8
  store ptr %0, ptr %2, align 8, !tbaa !8
  %3 = load ptr, ptr %2, align 8, !tbaa !8
  %4 = ptrtoint ptr %3 to i64
  %5 = and i64 %4, 1
  %6 = trunc i64 %5 to i32
  ret i32 %6
}

; Function Attrs: inlinehint nounwind uwtable
define internal i32 @Aig_ObjFaninC1(ptr noundef %0) #3 {
  %2 = alloca ptr, align 8
  store ptr %0, ptr %2, align 8, !tbaa !8
  %3 = load ptr, ptr %2, align 8, !tbaa !8
  %4 = getelementptr inbounds nuw %struct.Aig_Obj_t_, ptr %3, i32 0, i32 2
  %5 = load ptr, ptr %4, align 8, !tbaa !55
  %6 = call i32 @Aig_IsComplement(ptr noundef %5)
  ret i32 %6
}

; Function Attrs: inlinehint nounwind uwtable
define internal ptr @Aig_NotCond(ptr noundef %0, i32 noundef %1) #3 {
  %3 = alloca ptr, align 8
  %4 = alloca i32, align 4
  store ptr %0, ptr %3, align 8, !tbaa !8
  store i32 %1, ptr %4, align 4, !tbaa !29
  %5 = load ptr, ptr %3, align 8, !tbaa !8
  %6 = ptrtoint ptr %5 to i64
  %7 = load i32, ptr %4, align 4, !tbaa !29
  %8 = sext i32 %7 to i64
  %9 = xor i64 %6, %8
  %10 = inttoptr i64 %9 to ptr
  ret ptr %10
}

; Function Attrs: inlinehint nounwind uwtable
define internal i32 @Aig_ObjFaninC0(ptr noundef %0) #3 {
  %2 = alloca ptr, align 8
  store ptr %0, ptr %2, align 8, !tbaa !8
  %3 = load ptr, ptr %2, align 8, !tbaa !8
  %4 = getelementptr inbounds nuw %struct.Aig_Obj_t_, ptr %3, i32 0, i32 1
  %5 = load ptr, ptr %4, align 8, !tbaa !54
  %6 = call i32 @Aig_IsComplement(ptr noundef %5)
  ret i32 %6
}

; Function Attrs: inlinehint nounwind uwtable
define internal ptr @Aig_Regular(ptr noundef %0) #3 {
  %2 = alloca ptr, align 8
  store ptr %0, ptr %2, align 8, !tbaa !8
  %3 = load ptr, ptr %2, align 8, !tbaa !8
  %4 = ptrtoint ptr %3 to i64
  %5 = and i64 %4, -2
  %6 = inttoptr i64 %5 to ptr
  ret ptr %6
}

; Function Attrs: inlinehint nounwind uwtable
define internal i32 @Aig_ObjType(ptr noundef %0) #3 {
  %2 = alloca ptr, align 8
  store ptr %0, ptr %2, align 8, !tbaa !8
  %3 = load ptr, ptr %2, align 8, !tbaa !8
  %4 = getelementptr inbounds nuw %struct.Aig_Obj_t_, ptr %3, i32 0, i32 3
  %5 = load i64, ptr %4, align 8
  %6 = and i64 %5, 7
  %7 = trunc i64 %6 to i32
  ret i32 %7
}

; Function Attrs: inlinehint nounwind uwtable
define internal ptr @Aig_ObjChild1Copy(ptr noundef %0) #3 {
  %2 = alloca ptr, align 8
  store ptr %0, ptr %2, align 8, !tbaa !8
  %3 = load ptr, ptr %2, align 8, !tbaa !8
  %4 = call ptr @Aig_ObjFanin1(ptr noundef %3)
  %5 = icmp ne ptr %4, null
  br i1 %5, label %6, label %14

6:                                                ; preds = %1
  %7 = load ptr, ptr %2, align 8, !tbaa !8
  %8 = call ptr @Aig_ObjFanin1(ptr noundef %7)
  %9 = getelementptr inbounds nuw %struct.Aig_Obj_t_, ptr %8, i32 0, i32 6
  %10 = load ptr, ptr %9, align 8, !tbaa !28
  %11 = load ptr, ptr %2, align 8, !tbaa !8
  %12 = call i32 @Aig_ObjFaninC1(ptr noundef %11)
  %13 = call ptr @Aig_NotCond(ptr noundef %10, i32 noundef %12)
  br label %15

14:                                               ; preds = %1
  br label %15

15:                                               ; preds = %14, %6
  %16 = phi ptr [ %13, %6 ], [ null, %14 ]
  ret ptr %16
}

; Function Attrs: inlinehint nounwind uwtable
define internal ptr @Aig_ObjFanin1(ptr noundef %0) #3 {
  %2 = alloca ptr, align 8
  store ptr %0, ptr %2, align 8, !tbaa !8
  %3 = load ptr, ptr %2, align 8, !tbaa !8
  %4 = getelementptr inbounds nuw %struct.Aig_Obj_t_, ptr %3, i32 0, i32 2
  %5 = load ptr, ptr %4, align 8, !tbaa !55
  %6 = call ptr @Aig_Regular(ptr noundef %5)
  ret ptr %6
}

; Function Attrs: inlinehint nounwind uwtable
define internal ptr @Aig_ObjChild0Copy(ptr noundef %0) #3 {
  %2 = alloca ptr, align 8
  store ptr %0, ptr %2, align 8, !tbaa !8
  %3 = load ptr, ptr %2, align 8, !tbaa !8
  %4 = call ptr @Aig_ObjFanin0(ptr noundef %3)
  %5 = icmp ne ptr %4, null
  br i1 %5, label %6, label %14

6:                                                ; preds = %1
  %7 = load ptr, ptr %2, align 8, !tbaa !8
  %8 = call ptr @Aig_ObjFanin0(ptr noundef %7)
  %9 = getelementptr inbounds nuw %struct.Aig_Obj_t_, ptr %8, i32 0, i32 6
  %10 = load ptr, ptr %9, align 8, !tbaa !28
  %11 = load ptr, ptr %2, align 8, !tbaa !8
  %12 = call i32 @Aig_ObjFaninC0(ptr noundef %11)
  %13 = call ptr @Aig_NotCond(ptr noundef %10, i32 noundef %12)
  br label %15

14:                                               ; preds = %1
  br label %15

15:                                               ; preds = %14, %6
  %16 = phi ptr [ %13, %6 ], [ null, %14 ]
  ret ptr %16
}

; Function Attrs: inlinehint nounwind uwtable
define internal i32 @Aig_ObjIsBuf(ptr noundef %0) #3 {
  %2 = alloca ptr, align 8
  store ptr %0, ptr %2, align 8, !tbaa !8
  %3 = load ptr, ptr %2, align 8, !tbaa !8
  %4 = getelementptr inbounds nuw %struct.Aig_Obj_t_, ptr %3, i32 0, i32 3
  %5 = load i64, ptr %4, align 8
  %6 = and i64 %5, 7
  %7 = trunc i64 %6 to i32
  %8 = icmp eq i32 %7, 4
  %9 = zext i1 %8 to i32
  ret i32 %9
}

; Function Attrs: inlinehint nounwind uwtable
define internal ptr @Aig_ObjFanin0(ptr noundef %0) #3 {
  %2 = alloca ptr, align 8
  store ptr %0, ptr %2, align 8, !tbaa !8
  %3 = load ptr, ptr %2, align 8, !tbaa !8
  %4 = getelementptr inbounds nuw %struct.Aig_Obj_t_, ptr %3, i32 0, i32 1
  %5 = load ptr, ptr %4, align 8, !tbaa !54
  %6 = call ptr @Aig_Regular(ptr noundef %5)
  ret ptr %6
}

; Function Attrs: inlinehint nounwind uwtable
define internal ptr @Aig_ObjEquiv(ptr noundef %0, ptr noundef %1) #3 {
  %3 = alloca ptr, align 8
  %4 = alloca ptr, align 8
  store ptr %0, ptr %3, align 8, !tbaa !3
  store ptr %1, ptr %4, align 8, !tbaa !8
  %5 = load ptr, ptr %3, align 8, !tbaa !3
  %6 = getelementptr inbounds nuw %struct.Aig_Man_t_, ptr %5, i32 0, i32 30
  %7 = load ptr, ptr %6, align 8, !tbaa !69
  %8 = icmp ne ptr %7, null
  br i1 %8, label %9, label %19

9:                                                ; preds = %2
  %10 = load ptr, ptr %3, align 8, !tbaa !3
  %11 = getelementptr inbounds nuw %struct.Aig_Man_t_, ptr %10, i32 0, i32 30
  %12 = load ptr, ptr %11, align 8, !tbaa !69
  %13 = load ptr, ptr %4, align 8, !tbaa !8
  %14 = getelementptr inbounds nuw %struct.Aig_Obj_t_, ptr %13, i32 0, i32 5
  %15 = load i32, ptr %14, align 4, !tbaa !53
  %16 = sext i32 %15 to i64
  %17 = getelementptr inbounds ptr, ptr %12, i64 %16
  %18 = load ptr, ptr %17, align 8, !tbaa !8
  br label %20

19:                                               ; preds = %2
  br label %20

20:                                               ; preds = %19, %9
  %21 = phi ptr [ %18, %9 ], [ null, %19 ]
  ret ptr %21
}

; Function Attrs: inlinehint nounwind uwtable
define internal i32 @Aig_ObjIsCi(ptr noundef %0) #3 {
  %2 = alloca ptr, align 8
  store ptr %0, ptr %2, align 8, !tbaa !8
  %3 = load ptr, ptr %2, align 8, !tbaa !8
  %4 = getelementptr inbounds nuw %struct.Aig_Obj_t_, ptr %3, i32 0, i32 3
  %5 = load i64, ptr %4, align 8
  %6 = and i64 %5, 7
  %7 = trunc i64 %6 to i32
  %8 = icmp eq i32 %7, 2
  %9 = zext i1 %8 to i32
  ret i32 %9
}

; Function Attrs: nounwind uwtable
define ptr @Aig_ManDupDfsGuided_rec(ptr noundef %0, ptr noundef %1, ptr noundef %2) #0 {
  %4 = alloca ptr, align 8
  %5 = alloca ptr, align 8
  %6 = alloca ptr, align 8
  %7 = alloca ptr, align 8
  %8 = alloca ptr, align 8
  %9 = alloca ptr, align 8
  %10 = alloca i32, align 4
  store ptr %0, ptr %5, align 8, !tbaa !3
  store ptr %1, ptr %6, align 8, !tbaa !3
  store ptr %2, ptr %7, align 8, !tbaa !8
  call void @llvm.lifetime.start.p0(i64 8, ptr %8) #11
  call void @llvm.lifetime.start.p0(i64 8, ptr %9) #11
  store ptr null, ptr %9, align 8, !tbaa !8
  %11 = load ptr, ptr %7, align 8, !tbaa !8
  %12 = getelementptr inbounds nuw %struct.Aig_Obj_t_, ptr %11, i32 0, i32 6
  %13 = load ptr, ptr %12, align 8, !tbaa !28
  %14 = icmp ne ptr %13, null
  br i1 %14, label %15, label %19

15:                                               ; preds = %3
  %16 = load ptr, ptr %7, align 8, !tbaa !8
  %17 = getelementptr inbounds nuw %struct.Aig_Obj_t_, ptr %16, i32 0, i32 6
  %18 = load ptr, ptr %17, align 8, !tbaa !28
  store ptr %18, ptr %4, align 8
  store i32 1, ptr %10, align 4
  br label %116

19:                                               ; preds = %3
  %20 = load ptr, ptr %7, align 8, !tbaa !8
  %21 = call i32 @Aig_ObjIsCi(ptr noundef %20)
  %22 = icmp ne i32 %21, 0
  br i1 %22, label %23, label %24

23:                                               ; preds = %19
  store ptr null, ptr %4, align 8
  store i32 1, ptr %10, align 4
  br label %116

24:                                               ; preds = %19
  %25 = load ptr, ptr %6, align 8, !tbaa !3
  %26 = getelementptr inbounds nuw %struct.Aig_Man_t_, ptr %25, i32 0, i32 30
  %27 = load ptr, ptr %26, align 8, !tbaa !69
  %28 = icmp ne ptr %27, null
  br i1 %28, label %29, label %41

29:                                               ; preds = %24
  %30 = load ptr, ptr %6, align 8, !tbaa !3
  %31 = load ptr, ptr %7, align 8, !tbaa !8
  %32 = call ptr @Aig_ObjEquiv(ptr noundef %30, ptr noundef %31)
  %33 = icmp ne ptr %32, null
  br i1 %33, label %34, label %41

34:                                               ; preds = %29
  %35 = load ptr, ptr %5, align 8, !tbaa !3
  %36 = load ptr, ptr %6, align 8, !tbaa !3
  %37 = load ptr, ptr %6, align 8, !tbaa !3
  %38 = load ptr, ptr %7, align 8, !tbaa !8
  %39 = call ptr @Aig_ObjEquiv(ptr noundef %37, ptr noundef %38)
  %40 = call ptr @Aig_ManDupDfsGuided_rec(ptr noundef %35, ptr noundef %36, ptr noundef %39)
  store ptr %40, ptr %9, align 8, !tbaa !8
  br label %41

41:                                               ; preds = %34, %29, %24
  %42 = load ptr, ptr %5, align 8, !tbaa !3
  %43 = load ptr, ptr %6, align 8, !tbaa !3
  %44 = load ptr, ptr %7, align 8, !tbaa !8
  %45 = call ptr @Aig_ObjFanin0(ptr noundef %44)
  %46 = call ptr @Aig_ManDupDfsGuided_rec(ptr noundef %42, ptr noundef %43, ptr noundef %45)
  %47 = icmp ne ptr %46, null
  br i1 %47, label %49, label %48

48:                                               ; preds = %41
  store ptr null, ptr %4, align 8
  store i32 1, ptr %10, align 4
  br label %116

49:                                               ; preds = %41
  %50 = load ptr, ptr %7, align 8, !tbaa !8
  %51 = call i32 @Aig_ObjIsBuf(ptr noundef %50)
  %52 = icmp ne i32 %51, 0
  br i1 %52, label %53, label %58

53:                                               ; preds = %49
  %54 = load ptr, ptr %7, align 8, !tbaa !8
  %55 = call ptr @Aig_ObjChild0Copy(ptr noundef %54)
  %56 = load ptr, ptr %7, align 8, !tbaa !8
  %57 = getelementptr inbounds nuw %struct.Aig_Obj_t_, ptr %56, i32 0, i32 6
  store ptr %55, ptr %57, align 8, !tbaa !28
  store ptr %55, ptr %4, align 8
  store i32 1, ptr %10, align 4
  br label %116

58:                                               ; preds = %49
  %59 = load ptr, ptr %5, align 8, !tbaa !3
  %60 = load ptr, ptr %6, align 8, !tbaa !3
  %61 = load ptr, ptr %7, align 8, !tbaa !8
  %62 = call ptr @Aig_ObjFanin1(ptr noundef %61)
  %63 = call ptr @Aig_ManDupDfsGuided_rec(ptr noundef %59, ptr noundef %60, ptr noundef %62)
  %64 = icmp ne ptr %63, null
  br i1 %64, label %66, label %65

65:                                               ; preds = %58
  store ptr null, ptr %4, align 8
  store i32 1, ptr %10, align 4
  br label %116

66:                                               ; preds = %58
  %67 = load ptr, ptr %5, align 8, !tbaa !3
  %68 = load ptr, ptr %7, align 8, !tbaa !8
  %69 = call ptr @Aig_ObjChild0Copy(ptr noundef %68)
  %70 = load ptr, ptr %7, align 8, !tbaa !8
  %71 = call ptr @Aig_ObjChild1Copy(ptr noundef %70)
  %72 = load ptr, ptr %7, align 8, !tbaa !8
  %73 = call i32 @Aig_ObjType(ptr noundef %72)
  %74 = call ptr @Aig_Oper(ptr noundef %67, ptr noundef %69, ptr noundef %71, i32 noundef %73)
  store ptr %74, ptr %8, align 8, !tbaa !8
  %75 = load ptr, ptr %9, align 8, !tbaa !8
  %76 = icmp ne ptr %75, null
  br i1 %76, label %77, label %112

77:                                               ; preds = %66
  %78 = load ptr, ptr %5, align 8, !tbaa !3
  %79 = getelementptr inbounds nuw %struct.Aig_Man_t_, ptr %78, i32 0, i32 30
  %80 = load ptr, ptr %79, align 8, !tbaa !69
  %81 = icmp ne ptr %80, null
  br i1 %81, label %82, label %94

82:                                               ; preds = %77
  %83 = load ptr, ptr %9, align 8, !tbaa !8
  %84 = call ptr @Aig_Regular(ptr noundef %83)
  %85 = load ptr, ptr %5, align 8, !tbaa !3
  %86 = getelementptr inbounds nuw %struct.Aig_Man_t_, ptr %85, i32 0, i32 30
  %87 = load ptr, ptr %86, align 8, !tbaa !69
  %88 = load ptr, ptr %8, align 8, !tbaa !8
  %89 = call ptr @Aig_Regular(ptr noundef %88)
  %90 = getelementptr inbounds nuw %struct.Aig_Obj_t_, ptr %89, i32 0, i32 5
  %91 = load i32, ptr %90, align 4, !tbaa !53
  %92 = sext i32 %91 to i64
  %93 = getelementptr inbounds ptr, ptr %87, i64 %92
  store ptr %84, ptr %93, align 8, !tbaa !8
  br label %94

94:                                               ; preds = %82, %77
  %95 = load ptr, ptr %5, align 8, !tbaa !3
  %96 = getelementptr inbounds nuw %struct.Aig_Man_t_, ptr %95, i32 0, i32 31
  %97 = load ptr, ptr %96, align 8, !tbaa !70
  %98 = icmp ne ptr %97, null
  br i1 %98, label %99, label %111

99:                                               ; preds = %94
  %100 = load ptr, ptr %8, align 8, !tbaa !8
  %101 = call ptr @Aig_Regular(ptr noundef %100)
  %102 = load ptr, ptr %5, align 8, !tbaa !3
  %103 = getelementptr inbounds nuw %struct.Aig_Man_t_, ptr %102, i32 0, i32 31
  %104 = load ptr, ptr %103, align 8, !tbaa !70
  %105 = load ptr, ptr %9, align 8, !tbaa !8
  %106 = call ptr @Aig_Regular(ptr noundef %105)
  %107 = getelementptr inbounds nuw %struct.Aig_Obj_t_, ptr %106, i32 0, i32 5
  %108 = load i32, ptr %107, align 4, !tbaa !53
  %109 = sext i32 %108 to i64
  %110 = getelementptr inbounds ptr, ptr %104, i64 %109
  store ptr %101, ptr %110, align 8, !tbaa !8
  br label %111

111:                                              ; preds = %99, %94
  br label %112

112:                                              ; preds = %111, %66
  %113 = load ptr, ptr %8, align 8, !tbaa !8
  %114 = load ptr, ptr %7, align 8, !tbaa !8
  %115 = getelementptr inbounds nuw %struct.Aig_Obj_t_, ptr %114, i32 0, i32 6
  store ptr %113, ptr %115, align 8, !tbaa !28
  store ptr %113, ptr %4, align 8
  store i32 1, ptr %10, align 4
  br label %116

116:                                              ; preds = %112, %65, %53, %48, %23, %15
  call void @llvm.lifetime.end.p0(i64 8, ptr %9) #11
  call void @llvm.lifetime.end.p0(i64 8, ptr %8) #11
  %117 = load ptr, ptr %4, align 8
  ret ptr %117
}