; Function Attrs: nounwind uwtable
define ptr @Aig_ManDupDfsGuided_rec(ptr noundef %0, ptr noundef %1, ptr noundef captures(none) %2) local_unnamed_addr #0 {
  %4 = getelementptr inbounds nuw i8, ptr %2, i64 40
  %5 = load ptr, ptr %4, align 8, !tbaa !34
  %.not = icmp eq ptr %5, null
  br i1 %.not, label %6, label %97

6:                                                ; preds = %3
  %7 = getelementptr i8, ptr %2, i64 24
  %.val52 = load i64, ptr %7, align 8
  %8 = and i64 %.val52, 7
  %.not61 = icmp eq i64 %8, 2
  br i1 %.not61, label %97, label %9

9:                                                ; preds = %6
  %10 = getelementptr inbounds nuw i8, ptr %1, i64 248
  %11 = load ptr, ptr %10, align 8, !tbaa !65
  %.not38 = icmp eq ptr %11, null
  br i1 %.not38, label %18, label %Aig_ObjEquiv.exit

Aig_ObjEquiv.exit:                                ; preds = %9
  %12 = getelementptr inbounds nuw i8, ptr %2, i64 36
  %13 = load i32, ptr %12, align 4, !tbaa !46
  %14 = sext i32 %13 to i64
  %15 = getelementptr inbounds ptr, ptr %11, i64 %14
  %16 = load ptr, ptr %15, align 8, !tbaa !66
  %.not39 = icmp eq ptr %16, null
  br i1 %.not39, label %18, label %Aig_ObjEquiv.exit56

Aig_ObjEquiv.exit56:                              ; preds = %Aig_ObjEquiv.exit
  %17 = tail call ptr @Aig_ManDupDfsGuided_rec(ptr noundef %0, ptr noundef nonnull %1, ptr noundef nonnull %16)
  br label %18

18:                                               ; preds = %Aig_ObjEquiv.exit56, %Aig_ObjEquiv.exit, %9
  %.0 = phi ptr [ %17, %Aig_ObjEquiv.exit56 ], [ null, %Aig_ObjEquiv.exit ], [ null, %9 ]
  %19 = getelementptr i8, ptr %2, i64 8
  %.val46 = load ptr, ptr %19, align 8, !tbaa !41
  %20 = ptrtoint ptr %.val46 to i64
  %21 = and i64 %20, -2
  %22 = inttoptr i64 %21 to ptr
  %23 = tail call ptr @Aig_ManDupDfsGuided_rec(ptr noundef %0, ptr noundef nonnull %1, ptr noundef %22)
  %.not40 = icmp eq ptr %23, null
  br i1 %.not40, label %97, label %24

24:                                               ; preds = %18
  %.val = load i64, ptr %7, align 8
  %25 = and i64 %.val, 7
  %.not62 = icmp eq i64 %25, 4
  br i1 %.not62, label %26, label %37

26:                                               ; preds = %24
  %.val48 = load ptr, ptr %19, align 8, !tbaa !41
  %27 = ptrtoint ptr %.val48 to i64
  %28 = and i64 %27, -2
  %.not.i57 = icmp eq i64 %28, 0
  br i1 %.not.i57, label %.sink.split, label %29

29:                                               ; preds = %26
  %30 = inttoptr i64 %28 to ptr
  %31 = getelementptr inbounds nuw i8, ptr %30, i64 40
  %32 = load ptr, ptr %31, align 8, !tbaa !34
  %33 = and i64 %27, 1
  %34 = ptrtoint ptr %32 to i64
  %35 = xor i64 %33, %34
  %36 = inttoptr i64 %35 to ptr
  br label %.sink.split

37:                                               ; preds = %24
  %38 = getelementptr i8, ptr %2, i64 16
  %.val49 = load ptr, ptr %38, align 8, !tbaa !42
  %39 = ptrtoint ptr %.val49 to i64
  %40 = and i64 %39, -2
  %41 = inttoptr i64 %40 to ptr
  %42 = tail call ptr @Aig_ManDupDfsGuided_rec(ptr noundef %0, ptr noundef nonnull %1, ptr noundef %41)
  %.not42 = icmp eq ptr %42, null
  br i1 %.not42, label %97, label %43

43:                                               ; preds = %37
  %.val47 = load ptr, ptr %19, align 8, !tbaa !41
  %44 = ptrtoint ptr %.val47 to i64
  %45 = and i64 %44, -2
  %.not.i58 = icmp eq i64 %45, 0
  br i1 %.not.i58, label %Aig_ObjChild0Copy.exit59, label %46

46:                                               ; preds = %43
  %47 = inttoptr i64 %45 to ptr
  %48 = getelementptr inbounds nuw i8, ptr %47, i64 40
  %49 = load ptr, ptr %48, align 8, !tbaa !34
  %50 = and i64 %44, 1
  %51 = ptrtoint ptr %49 to i64
  %52 = xor i64 %50, %51
  %53 = inttoptr i64 %52 to ptr
  br label %Aig_ObjChild0Copy.exit59

Aig_ObjChild0Copy.exit59:                         ; preds = %43, %46
  %54 = phi ptr [ %53, %46 ], [ null, %43 ]
  %.val50 = load ptr, ptr %38, align 8, !tbaa !42
  %55 = ptrtoint ptr %.val50 to i64
  %56 = and i64 %55, -2
  %.not.i60 = icmp eq i64 %56, 0
  br i1 %.not.i60, label %Aig_ObjChild1Copy.exit, label %57

57:                                               ; preds = %Aig_ObjChild0Copy.exit59
  %58 = inttoptr i64 %56 to ptr
  %59 = getelementptr inbounds nuw i8, ptr %58, i64 40
  %60 = load ptr, ptr %59, align 8, !tbaa !34
  %61 = and i64 %55, 1
  %62 = ptrtoint ptr %60 to i64
  %63 = xor i64 %61, %62
  %64 = inttoptr i64 %63 to ptr
  br label %Aig_ObjChild1Copy.exit

Aig_ObjChild1Copy.exit:                           ; preds = %Aig_ObjChild0Copy.exit59, %57
  %65 = phi ptr [ %64, %57 ], [ null, %Aig_ObjChild0Copy.exit59 ]
  %.val51 = load i64, ptr %7, align 8
  %66 = trunc i64 %.val51 to i32
  %67 = and i32 %66, 7
  %68 = tail call ptr @Aig_Oper(ptr noundef %0, ptr noundef %54, ptr noundef %65, i32 noundef %67) #11
  %.not43 = icmp eq ptr %.0, null
  br i1 %.not43, label %.sink.split, label %69

69:                                               ; preds = %Aig_ObjChild1Copy.exit
  %70 = getelementptr inbounds nuw i8, ptr %0, i64 248
  %71 = load ptr, ptr %70, align 8, !tbaa !65
  %.not44 = icmp eq ptr %71, null
  br i1 %.not44, label %83, label %72

72:                                               ; preds = %69
  %73 = ptrtoint ptr %.0 to i64
  %74 = and i64 %73, -2
  %75 = inttoptr i64 %74 to ptr
  %76 = ptrtoint ptr %68 to i64
  %77 = and i64 %76, -2
  %78 = inttoptr i64 %77 to ptr
  %79 = getelementptr inbounds nuw i8, ptr %78, i64 36
  %80 = load i32, ptr %79, align 4, !tbaa !46
  %81 = sext i32 %80 to i64
  %82 = getelementptr inbounds ptr, ptr %71, i64 %81
  store ptr %75, ptr %82, align 8, !tbaa !66
  br label %83

83:                                               ; preds = %72, %69
  %84 = getelementptr inbounds nuw i8, ptr %0, i64 256
  %85 = load ptr, ptr %84, align 8, !tbaa !67
  %.not45 = icmp eq ptr %85, null
  br i1 %.not45, label %.sink.split, label %86

86:                                               ; preds = %83
  %87 = ptrtoint ptr %68 to i64
  %88 = and i64 %87, -2
  %89 = inttoptr i64 %88 to ptr
  %90 = ptrtoint ptr %.0 to i64
  %91 = and i64 %90, -2
  %92 = inttoptr i64 %91 to ptr
  %93 = getelementptr inbounds nuw i8, ptr %92, i64 36
  %94 = load i32, ptr %93, align 4, !tbaa !46
  %95 = sext i32 %94 to i64
  %96 = getelementptr inbounds ptr, ptr %85, i64 %95
  store ptr %89, ptr %96, align 8, !tbaa !66
  br label %.sink.split

.sink.split:                                      ; preds = %Aig_ObjChild1Copy.exit, %86, %83, %29, %26
  %.sink = phi ptr [ %36, %29 ], [ null, %26 ], [ %68, %83 ], [ %68, %86 ], [ %68, %Aig_ObjChild1Copy.exit ]
  store ptr %.sink, ptr %4, align 8, !tbaa !34
  br label %97

97:                                               ; preds = %.sink.split, %37, %18, %6, %3
  %.035 = phi ptr [ %5, %3 ], [ null, %6 ], [ null, %18 ], [ null, %37 ], [ %.sink, %.sink.split ]
  ret ptr %.035
}